target datalayout = "e-m:e-p270:32:32-p271:32:32-p272:64:64-i64:64-i128:128-f80:128-n8:16:32:64-S128"
target triple = "x86_64-pc-linux-gnu"

@DataDir = external global ptr, align 8

; Function Attrs: nounwind uwtable
define dso_local ptr @AbsoluteConfigLocation(ptr noundef %0, ptr noundef %1) #0 {
  %3 = alloca ptr, align 8
  %4 = alloca ptr, align 8
  %5 = alloca ptr, align 8
  %6 = alloca [1024 x i8], align 16
  store ptr %0, ptr %4, align 8
  store ptr %1, ptr %5, align 8
  %7 = load ptr, ptr %4, align 8
  %8 = getelementptr inbounds i8, ptr %7, i64 0
  %9 = load i8, ptr %8, align 1
  %10 = sext i8 %9 to i32
  %11 = icmp eq i32 %10, 47
  br i1 %11, label %12, label %15

12:                                               ; preds = %2
  %13 = load ptr, ptr %4, align 8
  %14 = call ptr @pstrdup(ptr noundef %13)
  store ptr %14, ptr %3, align 8
  br label %35

15:                                               ; preds = %2
  call void @llvm.lifetime.start.p0(i64 1024, ptr %6) #6
  %16 = load ptr, ptr %5, align 8
  %17 = icmp ne ptr %16, null
  br i1 %17, label %18, label %27

18:                                               ; preds = %15
  %19 = getelementptr inbounds [1024 x i8], ptr %6, i64 0, i64 0
  %20 = load ptr, ptr %5, align 8
  %21 = call i64 @strlcpy(ptr noundef %19, ptr noundef %20, i64 noundef 1024)
  %22 = getelementptr inbounds [1024 x i8], ptr %6, i64 0, i64 0
  call void @get_parent_directory(ptr noundef %22)
  %23 = getelementptr inbounds [1024 x i8], ptr %6, i64 0, i64 0
  %24 = getelementptr inbounds [1024 x i8], ptr %6, i64 0, i64 0
  %25 = load ptr, ptr %4, align 8
  call void @join_path_components(ptr noundef %23, ptr noundef %24, ptr noundef %25)
  %26 = getelementptr inbounds [1024 x i8], ptr %6, i64 0, i64 0
  call void @canonicalize_path(ptr noundef %26)
  br label %32

27:                                               ; preds = %15
  %28 = getelementptr inbounds [1024 x i8], ptr %6, i64 0, i64 0
  %29 = load ptr, ptr @DataDir, align 8
  %30 = load ptr, ptr %4, align 8
  call void @join_path_components(ptr noundef %28, ptr noundef %29, ptr noundef %30)
  %31 = getelementptr inbounds [1024 x i8], ptr %6, i64 0, i64 0
  call void @canonicalize_path(ptr noundef %31)
  br label %32

32:                                               ; preds = %27, %18
  %33 = getelementptr inbounds [1024 x i8], ptr %6, i64 0, i64 0
  %34 = call ptr @pstrdup(ptr noundef %33)
  store ptr %34, ptr %3, align 8
  call void @llvm.lifetime.end.p0(i64 1024, ptr %6) #6
  br label %35

35:                                               ; preds = %32, %12
  %36 = load ptr, ptr %3, align 8
  ret ptr %36
}