; Function Attrs: nounwind uwtable
define dso_local ptr @AbsoluteConfigLocation(ptr noundef %0, ptr noundef %1) local_unnamed_addr #0 {
  %3 = alloca [1024 x i8], align 16
  %4 = load i8, ptr %0, align 1
  %5 = icmp eq i8 %4, 47
  br i1 %5, label %6, label %8

6:                                                ; preds = %2
  %7 = tail call ptr @pstrdup(ptr noundef nonnull %0) #5
  br label %15

8:                                                ; preds = %2
  call void @llvm.lifetime.start.p0(i64 1024, ptr nonnull %3) #5
  %.not = icmp eq ptr %1, null
  br i1 %.not, label %11, label %9

9:                                                ; preds = %8
  %10 = call i64 @strlcpy(ptr noundef nonnull dereferenceable(1) %3, ptr noundef nonnull dereferenceable(1) %1, i64 noundef 1024) #5
  call void @get_parent_directory(ptr noundef nonnull %3) #5
  br label %13

11:                                               ; preds = %8
  %12 = load ptr, ptr @DataDir, align 8
  br label %13

13:                                               ; preds = %11, %9
  %.sink = phi ptr [ %12, %11 ], [ %3, %9 ]
  call void @join_path_components(ptr noundef nonnull %3, ptr noundef %.sink, ptr noundef nonnull %0) #5
  call void @canonicalize_path(ptr noundef nonnull %3) #5
  %14 = call ptr @pstrdup(ptr noundef nonnull %3) #5
  call void @llvm.lifetime.end.p0(i64 1024, ptr nonnull %3) #5
  br label %15

15:                                               ; preds = %13, %6
  %.0 = phi ptr [ %7, %6 ], [ %14, %13 ]
  ret ptr %.0
}